target datalayout = "e-m:e-p270:32:32-p271:32:32-p272:64:64-i64:64-i128:128-f80:128-n8:16:32:64-S128"
target triple = "x86_64-unknown-linux-gnu"

%"class.testing::internal::TestFactoryBase" = type { ptr }
%"class.testing::internal::ParameterizedTestFactory.345" = type <{ %"class.testing::internal::TestFactoryBase", i8, [7 x i8] }>

; Function Attrs: mustprogress nounwind uwtable
define linkonce_odr dso_local void @_ZN7testing8internal15TestFactoryBaseC2Ev(ptr noundef nonnull align 8 dereferenceable(8) %this) unnamed_addr #5 comdat align 2 {
entry:
  %this.addr = alloca ptr, align 8
  store ptr %this, ptr %this.addr, align 8
  %this1 = load ptr, ptr %this.addr, align 8
  store ptr getelementptr inbounds ({ [5 x ptr] }, ptr @_ZTVN7testing8internal15TestFactoryBaseE, i32 0, i32 0, i32 2), ptr %this1, align 8
  ret void
}

; Function Attrs: mustprogress nounwind uwtable
define internal void @_ZN7testing8internal24ParameterizedTestFactoryIN4absl13cord_internal12_GLOBAL__N_145CordRepBtreeTest_PrependToLeafToCapacity_TestEEC2Eb(ptr noundef nonnull align 8 dereferenceable(9) %this, i1 noundef zeroext %parameter) unnamed_addr #5 align 2 {
entry:
  %this.addr = alloca ptr, align 8
  %parameter.addr = alloca i8, align 1
  store ptr %this, ptr %this.addr, align 8
  %frombool = zext i1 %parameter to i8
  store i8 %frombool, ptr %parameter.addr, align 1
  %this1 = load ptr, ptr %this.addr, align 8
  call void @_ZN7testing8internal15TestFactoryBaseC2Ev(ptr noundef nonnull align 8 dereferenceable(8) %this1)
  store ptr getelementptr inbounds ({ [5 x ptr] }, ptr @_ZTVN7testing8internal24ParameterizedTestFactoryIN4absl13cord_internal12_GLOBAL__N_145CordRepBtreeTest_PrependToLeafToCapacity_TestEEE, i32 0, i32 0, i32 2), ptr %this1, align 8
  %parameter_ = getelementptr inbounds %"class.testing::internal::ParameterizedTestFactory.345", ptr %this1, i32 0, i32 1
  %0 = load i8, ptr %parameter.addr, align 1
  %tobool = trunc i8 %0 to i1
  %frombool2 = zext i1 %tobool to i8
  store i8 %frombool2, ptr %parameter_, align 8
  ret void
}

; Function Attrs: mustprogress uwtable
define internal noundef ptr @_ZN7testing8internal15TestMetaFactoryIN4absl13cord_internal12_GLOBAL__N_145CordRepBtreeTest_PrependToLeafToCapacity_TestEE17CreateTestFactoryEb(ptr noundef nonnull align 8 dereferenceable(8) %this, i1 noundef zeroext %parameter) unnamed_addr #4 align 2 personality ptr @__gxx_personality_v0 {
entry:
  %this.addr = alloca ptr, align 8
  %parameter.addr = alloca i8, align 1
  %exn.slot = alloca ptr, align 8
  %ehselector.slot = alloca i32, align 4
  store ptr %this, ptr %this.addr, align 8
  %frombool = zext i1 %parameter to i8
  store i8 %frombool, ptr %parameter.addr, align 1
  %call = call noalias noundef nonnull ptr @_Znwm(i64 noundef 16) #21
  %0 = load i8, ptr %parameter.addr, align 1
  %tobool = trunc i8 %0 to i1
  invoke void @_ZN7testing8internal24ParameterizedTestFactoryIN4absl13cord_internal12_GLOBAL__N_145CordRepBtreeTest_PrependToLeafToCapacity_TestEEC2Eb(ptr noundef nonnull align 8 dereferenceable(9) %call, i1 noundef zeroext %tobool)
          to label %invoke.cont unwind label %lpad

invoke.cont:                                      ; preds = %entry
  ret ptr %call

lpad:                                             ; preds = %entry
  %1 = landingpad { ptr, i32 }
          cleanup
  %2 = extractvalue { ptr, i32 } %1, 0
  store ptr %2, ptr %exn.slot, align 8
  %3 = extractvalue { ptr, i32 } %1, 1
  store i32 %3, ptr %ehselector.slot, align 4
  call void @_ZdlPv(ptr noundef %call) #22
  br label %eh.resume

eh.resume:                                        ; preds = %lpad
  %exn = load ptr, ptr %exn.slot, align 8
  %sel = load i32, ptr %ehselector.slot, align 4
  %lpad.val = insertvalue { ptr, i32 } poison, ptr %exn, 0
  %lpad.val2 = insertvalue { ptr, i32 } %lpad.val, i32 %sel, 1
  resume { ptr, i32 } %lpad.val2
}